ARM GAS  C:\Users\FIsh\AppData\Local\Temp\ccywQgVs.s 			page 1


   1              		.cpu cortex-m4
   2              		.arch armv7e-m
   3              		.fpu fpv4-sp-d16
   4              		.eabi_attribute 27, 1
   5              		.eabi_attribute 28, 1
   6              		.eabi_attribute 20, 1
   7              		.eabi_attribute 21, 1
   8              		.eabi_attribute 23, 3
   9              		.eabi_attribute 24, 1
  10              		.eabi_attribute 25, 1
  11              		.eabi_attribute 26, 1
  12              		.eabi_attribute 30, 1
  13              		.eabi_attribute 34, 1
  14              		.eabi_attribute 18, 4
  15              		.file	"usart.c"
  16              		.text
  17              	.Ltext0:
  18              		.cfi_sections	.debug_frame
  19              		.section	.text.MX_USART1_UART_Init,"ax",%progbits
  20              		.align	1
  21              		.global	MX_USART1_UART_Init
  22              		.syntax unified
  23              		.thumb
  24              		.thumb_func
  26              	MX_USART1_UART_Init:
  27              	.LFB130:
  28              		.file 1 "Core/Src/usart.c"
   1:Core/Src/usart.c **** /* USER CODE BEGIN Header */
   2:Core/Src/usart.c **** /**
   3:Core/Src/usart.c ****   ******************************************************************************
   4:Core/Src/usart.c ****   * @file    usart.c
   5:Core/Src/usart.c ****   * @brief   This file provides code for the configuration
   6:Core/Src/usart.c ****   *          of the USART instances.
   7:Core/Src/usart.c ****   ******************************************************************************
   8:Core/Src/usart.c ****   * @attention
   9:Core/Src/usart.c ****   *
  10:Core/Src/usart.c ****   * Copyright (c) 2023 STMicroelectronics.
  11:Core/Src/usart.c ****   * All rights reserved.
  12:Core/Src/usart.c ****   *
  13:Core/Src/usart.c ****   * This software is licensed under terms that can be found in the LICENSE file
  14:Core/Src/usart.c ****   * in the root directory of this software component.
  15:Core/Src/usart.c ****   * If no LICENSE file comes with this software, it is provided AS-IS.
  16:Core/Src/usart.c ****   *
  17:Core/Src/usart.c ****   ******************************************************************************
  18:Core/Src/usart.c ****   */
  19:Core/Src/usart.c **** /* USER CODE END Header */
  20:Core/Src/usart.c **** /* Includes ------------------------------------------------------------------*/
  21:Core/Src/usart.c **** #include "usart.h"
  22:Core/Src/usart.c **** 
  23:Core/Src/usart.c **** /* USER CODE BEGIN 0 */
  24:Core/Src/usart.c **** 
  25:Core/Src/usart.c **** /* USER CODE END 0 */
  26:Core/Src/usart.c **** 
  27:Core/Src/usart.c **** UART_HandleTypeDef huart1;
  28:Core/Src/usart.c **** 
  29:Core/Src/usart.c **** /* USART1 init function */
  30:Core/Src/usart.c **** 
ARM GAS  C:\Users\FIsh\AppData\Local\Temp\ccywQgVs.s 			page 2


  31:Core/Src/usart.c **** void MX_USART1_UART_Init(void)
  32:Core/Src/usart.c **** {
  29              		.loc 1 32 1 view -0
  30              		.cfi_startproc
  31              		@ args = 0, pretend = 0, frame = 0
  32              		@ frame_needed = 0, uses_anonymous_args = 0
  33 0000 08B5     		push	{r3, lr}
  34              	.LCFI0:
  35              		.cfi_def_cfa_offset 8
  36              		.cfi_offset 3, -8
  37              		.cfi_offset 14, -4
  33:Core/Src/usart.c **** 
  34:Core/Src/usart.c ****   /* USER CODE BEGIN USART1_Init 0 */
  35:Core/Src/usart.c **** 
  36:Core/Src/usart.c ****   /* USER CODE END USART1_Init 0 */
  37:Core/Src/usart.c **** 
  38:Core/Src/usart.c ****   /* USER CODE BEGIN USART1_Init 1 */
  39:Core/Src/usart.c **** 
  40:Core/Src/usart.c ****   /* USER CODE END USART1_Init 1 */
  41:Core/Src/usart.c ****   huart1.Instance = USART1;
  38              		.loc 1 41 3 view .LVU1
  39              		.loc 1 41 19 is_stmt 0 view .LVU2
  40 0002 0A48     		ldr	r0, .L5
  41 0004 0A4B     		ldr	r3, .L5+4
  42 0006 0360     		str	r3, [r0]
  42:Core/Src/usart.c ****   huart1.Init.BaudRate = 2000000;
  43              		.loc 1 42 3 is_stmt 1 view .LVU3
  44              		.loc 1 42 24 is_stmt 0 view .LVU4
  45 0008 0A4B     		ldr	r3, .L5+8
  46 000a 4360     		str	r3, [r0, #4]
  43:Core/Src/usart.c ****   huart1.Init.WordLength = UART_WORDLENGTH_8B;
  47              		.loc 1 43 3 is_stmt 1 view .LVU5
  48              		.loc 1 43 26 is_stmt 0 view .LVU6
  49 000c 0023     		movs	r3, #0
  50 000e 8360     		str	r3, [r0, #8]
  44:Core/Src/usart.c ****   huart1.Init.StopBits = UART_STOPBITS_1;
  51              		.loc 1 44 3 is_stmt 1 view .LVU7
  52              		.loc 1 44 24 is_stmt 0 view .LVU8
  53 0010 C360     		str	r3, [r0, #12]
  45:Core/Src/usart.c ****   huart1.Init.Parity = UART_PARITY_NONE;
  54              		.loc 1 45 3 is_stmt 1 view .LVU9
  55              		.loc 1 45 22 is_stmt 0 view .LVU10
  56 0012 0361     		str	r3, [r0, #16]
  46:Core/Src/usart.c ****   huart1.Init.Mode = UART_MODE_TX_RX;
  57              		.loc 1 46 3 is_stmt 1 view .LVU11
  58              		.loc 1 46 20 is_stmt 0 view .LVU12
  59 0014 0C22     		movs	r2, #12
  60 0016 4261     		str	r2, [r0, #20]
  47:Core/Src/usart.c ****   huart1.Init.HwFlowCtl = UART_HWCONTROL_NONE;
  61              		.loc 1 47 3 is_stmt 1 view .LVU13
  62              		.loc 1 47 25 is_stmt 0 view .LVU14
  63 0018 8361     		str	r3, [r0, #24]
  48:Core/Src/usart.c ****   huart1.Init.OverSampling = UART_OVERSAMPLING_16;
  64              		.loc 1 48 3 is_stmt 1 view .LVU15
  65              		.loc 1 48 28 is_stmt 0 view .LVU16
  66 001a C361     		str	r3, [r0, #28]
  49:Core/Src/usart.c ****   if (HAL_UART_Init(&huart1) != HAL_OK)
ARM GAS  C:\Users\FIsh\AppData\Local\Temp\ccywQgVs.s 			page 3


  67              		.loc 1 49 3 is_stmt 1 view .LVU17
  68              		.loc 1 49 7 is_stmt 0 view .LVU18
  69 001c FFF7FEFF 		bl	HAL_UART_Init
  70              	.LVL0:
  71              		.loc 1 49 6 view .LVU19
  72 0020 00B9     		cbnz	r0, .L4
  73              	.L1:
  50:Core/Src/usart.c ****   {
  51:Core/Src/usart.c ****     Error_Handler();
  52:Core/Src/usart.c ****   }
  53:Core/Src/usart.c ****   /* USER CODE BEGIN USART1_Init 2 */
  54:Core/Src/usart.c **** 
  55:Core/Src/usart.c ****   /* USER CODE END USART1_Init 2 */
  56:Core/Src/usart.c **** 
  57:Core/Src/usart.c **** }
  74              		.loc 1 57 1 view .LVU20
  75 0022 08BD     		pop	{r3, pc}
  76              	.L4:
  51:Core/Src/usart.c ****   }
  77              		.loc 1 51 5 is_stmt 1 view .LVU21
  78 0024 FFF7FEFF 		bl	Error_Handler
  79              	.LVL1:
  80              		.loc 1 57 1 is_stmt 0 view .LVU22
  81 0028 FBE7     		b	.L1
  82              	.L6:
  83 002a 00BF     		.align	2
  84              	.L5:
  85 002c 00000000 		.word	.LANCHOR0
  86 0030 00100140 		.word	1073811456
  87 0034 80841E00 		.word	2000000
  88              		.cfi_endproc
  89              	.LFE130:
  91              		.section	.text.HAL_UART_MspInit,"ax",%progbits
  92              		.align	1
  93              		.global	HAL_UART_MspInit
  94              		.syntax unified
  95              		.thumb
  96              		.thumb_func
  98              	HAL_UART_MspInit:
  99              	.LVL2:
 100              	.LFB131:
  58:Core/Src/usart.c **** 
  59:Core/Src/usart.c **** void HAL_UART_MspInit(UART_HandleTypeDef* uartHandle)
  60:Core/Src/usart.c **** {
 101              		.loc 1 60 1 is_stmt 1 view -0
 102              		.cfi_startproc
 103              		@ args = 0, pretend = 0, frame = 32
 104              		@ frame_needed = 0, uses_anonymous_args = 0
 105              		.loc 1 60 1 is_stmt 0 view .LVU24
 106 0000 F0B5     		push	{r4, r5, r6, r7, lr}
 107              	.LCFI1:
 108              		.cfi_def_cfa_offset 20
 109              		.cfi_offset 4, -20
 110              		.cfi_offset 5, -16
 111              		.cfi_offset 6, -12
 112              		.cfi_offset 7, -8
 113              		.cfi_offset 14, -4
ARM GAS  C:\Users\FIsh\AppData\Local\Temp\ccywQgVs.s 			page 4


 114 0002 89B0     		sub	sp, sp, #36
 115              	.LCFI2:
 116              		.cfi_def_cfa_offset 56
  61:Core/Src/usart.c **** 
  62:Core/Src/usart.c ****   GPIO_InitTypeDef GPIO_InitStruct = {0};
 117              		.loc 1 62 3 is_stmt 1 view .LVU25
 118              		.loc 1 62 20 is_stmt 0 view .LVU26
 119 0004 0023     		movs	r3, #0
 120 0006 0393     		str	r3, [sp, #12]
 121 0008 0493     		str	r3, [sp, #16]
 122 000a 0593     		str	r3, [sp, #20]
 123 000c 0693     		str	r3, [sp, #24]
 124 000e 0793     		str	r3, [sp, #28]
  63:Core/Src/usart.c ****   if(uartHandle->Instance==USART1)
 125              		.loc 1 63 3 is_stmt 1 view .LVU27
 126              		.loc 1 63 16 is_stmt 0 view .LVU28
 127 0010 0268     		ldr	r2, [r0]
 128              		.loc 1 63 5 view .LVU29
 129 0012 03F18043 		add	r3, r3, #1073741824
 130 0016 03F58833 		add	r3, r3, #69632
 131 001a 9A42     		cmp	r2, r3
 132 001c 01D0     		beq	.L10
 133              	.LVL3:
 134              	.L7:
  64:Core/Src/usart.c ****   {
  65:Core/Src/usart.c ****   /* USER CODE BEGIN USART1_MspInit 0 */
  66:Core/Src/usart.c **** 
  67:Core/Src/usart.c ****   /* USER CODE END USART1_MspInit 0 */
  68:Core/Src/usart.c ****     /* USART1 clock enable */
  69:Core/Src/usart.c ****     __HAL_RCC_USART1_CLK_ENABLE();
  70:Core/Src/usart.c **** 
  71:Core/Src/usart.c ****     __HAL_RCC_GPIOB_CLK_ENABLE();
  72:Core/Src/usart.c ****     __HAL_RCC_GPIOA_CLK_ENABLE();
  73:Core/Src/usart.c ****     /**USART1 GPIO Configuration
  74:Core/Src/usart.c ****     PB7     ------> USART1_RX
  75:Core/Src/usart.c ****     PA9     ------> USART1_TX
  76:Core/Src/usart.c ****     */
  77:Core/Src/usart.c ****     GPIO_InitStruct.Pin = GPIO_PIN_7;
  78:Core/Src/usart.c ****     GPIO_InitStruct.Mode = GPIO_MODE_AF_PP;
  79:Core/Src/usart.c ****     GPIO_InitStruct.Pull = GPIO_NOPULL;
  80:Core/Src/usart.c ****     GPIO_InitStruct.Speed = GPIO_SPEED_FREQ_VERY_HIGH;
  81:Core/Src/usart.c ****     GPIO_InitStruct.Alternate = GPIO_AF7_USART1;
  82:Core/Src/usart.c ****     HAL_GPIO_Init(GPIOB, &GPIO_InitStruct);
  83:Core/Src/usart.c **** 
  84:Core/Src/usart.c ****     GPIO_InitStruct.Pin = GPIO_PIN_9;
  85:Core/Src/usart.c ****     GPIO_InitStruct.Mode = GPIO_MODE_AF_PP;
  86:Core/Src/usart.c ****     GPIO_InitStruct.Pull = GPIO_NOPULL;
  87:Core/Src/usart.c ****     GPIO_InitStruct.Speed = GPIO_SPEED_FREQ_VERY_HIGH;
  88:Core/Src/usart.c ****     GPIO_InitStruct.Alternate = GPIO_AF7_USART1;
  89:Core/Src/usart.c ****     HAL_GPIO_Init(GPIOA, &GPIO_InitStruct);
  90:Core/Src/usart.c **** 
  91:Core/Src/usart.c ****     /* USART1 interrupt Init */
  92:Core/Src/usart.c ****     HAL_NVIC_SetPriority(USART1_IRQn, 0, 0);
  93:Core/Src/usart.c ****     HAL_NVIC_EnableIRQ(USART1_IRQn);
  94:Core/Src/usart.c ****   /* USER CODE BEGIN USART1_MspInit 1 */
  95:Core/Src/usart.c **** 
  96:Core/Src/usart.c ****   /* USER CODE END USART1_MspInit 1 */
ARM GAS  C:\Users\FIsh\AppData\Local\Temp\ccywQgVs.s 			page 5


  97:Core/Src/usart.c ****   }
  98:Core/Src/usart.c **** }
 135              		.loc 1 98 1 view .LVU30
 136 001e 09B0     		add	sp, sp, #36
 137              	.LCFI3:
 138              		.cfi_remember_state
 139              		.cfi_def_cfa_offset 20
 140              		@ sp needed
 141 0020 F0BD     		pop	{r4, r5, r6, r7, pc}
 142              	.LVL4:
 143              	.L10:
 144              	.LCFI4:
 145              		.cfi_restore_state
  69:Core/Src/usart.c **** 
 146              		.loc 1 69 5 is_stmt 1 view .LVU31
 147              	.LBB2:
  69:Core/Src/usart.c **** 
 148              		.loc 1 69 5 view .LVU32
 149 0022 0024     		movs	r4, #0
 150 0024 0094     		str	r4, [sp]
  69:Core/Src/usart.c **** 
 151              		.loc 1 69 5 view .LVU33
 152 0026 03F59433 		add	r3, r3, #75776
 153 002a 5A6C     		ldr	r2, [r3, #68]
 154 002c 42F01002 		orr	r2, r2, #16
 155 0030 5A64     		str	r2, [r3, #68]
  69:Core/Src/usart.c **** 
 156              		.loc 1 69 5 view .LVU34
 157 0032 5A6C     		ldr	r2, [r3, #68]
 158 0034 02F01002 		and	r2, r2, #16
 159 0038 0092     		str	r2, [sp]
  69:Core/Src/usart.c **** 
 160              		.loc 1 69 5 view .LVU35
 161 003a 009A     		ldr	r2, [sp]
 162              	.LBE2:
  69:Core/Src/usart.c **** 
 163              		.loc 1 69 5 view .LVU36
  71:Core/Src/usart.c ****     __HAL_RCC_GPIOA_CLK_ENABLE();
 164              		.loc 1 71 5 view .LVU37
 165              	.LBB3:
  71:Core/Src/usart.c ****     __HAL_RCC_GPIOA_CLK_ENABLE();
 166              		.loc 1 71 5 view .LVU38
 167 003c 0194     		str	r4, [sp, #4]
  71:Core/Src/usart.c ****     __HAL_RCC_GPIOA_CLK_ENABLE();
 168              		.loc 1 71 5 view .LVU39
 169 003e 1A6B     		ldr	r2, [r3, #48]
 170 0040 42F00202 		orr	r2, r2, #2
 171 0044 1A63     		str	r2, [r3, #48]
  71:Core/Src/usart.c ****     __HAL_RCC_GPIOA_CLK_ENABLE();
 172              		.loc 1 71 5 view .LVU40
 173 0046 1A6B     		ldr	r2, [r3, #48]
 174 0048 02F00202 		and	r2, r2, #2
 175 004c 0192     		str	r2, [sp, #4]
  71:Core/Src/usart.c ****     __HAL_RCC_GPIOA_CLK_ENABLE();
 176              		.loc 1 71 5 view .LVU41
 177 004e 019A     		ldr	r2, [sp, #4]
 178              	.LBE3:
ARM GAS  C:\Users\FIsh\AppData\Local\Temp\ccywQgVs.s 			page 6


  71:Core/Src/usart.c ****     __HAL_RCC_GPIOA_CLK_ENABLE();
 179              		.loc 1 71 5 view .LVU42
  72:Core/Src/usart.c ****     /**USART1 GPIO Configuration
 180              		.loc 1 72 5 view .LVU43
 181              	.LBB4:
  72:Core/Src/usart.c ****     /**USART1 GPIO Configuration
 182              		.loc 1 72 5 view .LVU44
 183 0050 0294     		str	r4, [sp, #8]
  72:Core/Src/usart.c ****     /**USART1 GPIO Configuration
 184              		.loc 1 72 5 view .LVU45
 185 0052 1A6B     		ldr	r2, [r3, #48]
 186 0054 42F00102 		orr	r2, r2, #1
 187 0058 1A63     		str	r2, [r3, #48]
  72:Core/Src/usart.c ****     /**USART1 GPIO Configuration
 188              		.loc 1 72 5 view .LVU46
 189 005a 1B6B     		ldr	r3, [r3, #48]
 190 005c 03F00103 		and	r3, r3, #1
 191 0060 0293     		str	r3, [sp, #8]
  72:Core/Src/usart.c ****     /**USART1 GPIO Configuration
 192              		.loc 1 72 5 view .LVU47
 193 0062 029B     		ldr	r3, [sp, #8]
 194              	.LBE4:
  72:Core/Src/usart.c ****     /**USART1 GPIO Configuration
 195              		.loc 1 72 5 view .LVU48
  77:Core/Src/usart.c ****     GPIO_InitStruct.Mode = GPIO_MODE_AF_PP;
 196              		.loc 1 77 5 view .LVU49
  77:Core/Src/usart.c ****     GPIO_InitStruct.Mode = GPIO_MODE_AF_PP;
 197              		.loc 1 77 25 is_stmt 0 view .LVU50
 198 0064 8023     		movs	r3, #128
 199 0066 0393     		str	r3, [sp, #12]
  78:Core/Src/usart.c ****     GPIO_InitStruct.Pull = GPIO_NOPULL;
 200              		.loc 1 78 5 is_stmt 1 view .LVU51
  78:Core/Src/usart.c ****     GPIO_InitStruct.Pull = GPIO_NOPULL;
 201              		.loc 1 78 26 is_stmt 0 view .LVU52
 202 0068 0227     		movs	r7, #2
 203 006a 0497     		str	r7, [sp, #16]
  79:Core/Src/usart.c ****     GPIO_InitStruct.Speed = GPIO_SPEED_FREQ_VERY_HIGH;
 204              		.loc 1 79 5 is_stmt 1 view .LVU53
  80:Core/Src/usart.c ****     GPIO_InitStruct.Alternate = GPIO_AF7_USART1;
 205              		.loc 1 80 5 view .LVU54
  80:Core/Src/usart.c ****     GPIO_InitStruct.Alternate = GPIO_AF7_USART1;
 206              		.loc 1 80 27 is_stmt 0 view .LVU55
 207 006c 0326     		movs	r6, #3
 208 006e 0696     		str	r6, [sp, #24]
  81:Core/Src/usart.c ****     HAL_GPIO_Init(GPIOB, &GPIO_InitStruct);
 209              		.loc 1 81 5 is_stmt 1 view .LVU56
  81:Core/Src/usart.c ****     HAL_GPIO_Init(GPIOB, &GPIO_InitStruct);
 210              		.loc 1 81 31 is_stmt 0 view .LVU57
 211 0070 0725     		movs	r5, #7
 212 0072 0795     		str	r5, [sp, #28]
  82:Core/Src/usart.c **** 
 213              		.loc 1 82 5 is_stmt 1 view .LVU58
 214 0074 03A9     		add	r1, sp, #12
 215 0076 0B48     		ldr	r0, .L11
 216              	.LVL5:
  82:Core/Src/usart.c **** 
 217              		.loc 1 82 5 is_stmt 0 view .LVU59
ARM GAS  C:\Users\FIsh\AppData\Local\Temp\ccywQgVs.s 			page 7


 218 0078 FFF7FEFF 		bl	HAL_GPIO_Init
 219              	.LVL6:
  84:Core/Src/usart.c ****     GPIO_InitStruct.Mode = GPIO_MODE_AF_PP;
 220              		.loc 1 84 5 is_stmt 1 view .LVU60
  84:Core/Src/usart.c ****     GPIO_InitStruct.Mode = GPIO_MODE_AF_PP;
 221              		.loc 1 84 25 is_stmt 0 view .LVU61
 222 007c 4FF40073 		mov	r3, #512
 223 0080 0393     		str	r3, [sp, #12]
  85:Core/Src/usart.c ****     GPIO_InitStruct.Pull = GPIO_NOPULL;
 224              		.loc 1 85 5 is_stmt 1 view .LVU62
  85:Core/Src/usart.c ****     GPIO_InitStruct.Pull = GPIO_NOPULL;
 225              		.loc 1 85 26 is_stmt 0 view .LVU63
 226 0082 0497     		str	r7, [sp, #16]
  86:Core/Src/usart.c ****     GPIO_InitStruct.Speed = GPIO_SPEED_FREQ_VERY_HIGH;
 227              		.loc 1 86 5 is_stmt 1 view .LVU64
  86:Core/Src/usart.c ****     GPIO_InitStruct.Speed = GPIO_SPEED_FREQ_VERY_HIGH;
 228              		.loc 1 86 26 is_stmt 0 view .LVU65
 229 0084 0594     		str	r4, [sp, #20]
  87:Core/Src/usart.c ****     GPIO_InitStruct.Alternate = GPIO_AF7_USART1;
 230              		.loc 1 87 5 is_stmt 1 view .LVU66
  87:Core/Src/usart.c ****     GPIO_InitStruct.Alternate = GPIO_AF7_USART1;
 231              		.loc 1 87 27 is_stmt 0 view .LVU67
 232 0086 0696     		str	r6, [sp, #24]
  88:Core/Src/usart.c ****     HAL_GPIO_Init(GPIOA, &GPIO_InitStruct);
 233              		.loc 1 88 5 is_stmt 1 view .LVU68
  88:Core/Src/usart.c ****     HAL_GPIO_Init(GPIOA, &GPIO_InitStruct);
 234              		.loc 1 88 31 is_stmt 0 view .LVU69
 235 0088 0795     		str	r5, [sp, #28]
  89:Core/Src/usart.c **** 
 236              		.loc 1 89 5 is_stmt 1 view .LVU70
 237 008a 03A9     		add	r1, sp, #12
 238 008c 0648     		ldr	r0, .L11+4
 239 008e FFF7FEFF 		bl	HAL_GPIO_Init
 240              	.LVL7:
  92:Core/Src/usart.c ****     HAL_NVIC_EnableIRQ(USART1_IRQn);
 241              		.loc 1 92 5 view .LVU71
 242 0092 2246     		mov	r2, r4
 243 0094 2146     		mov	r1, r4
 244 0096 2520     		movs	r0, #37
 245 0098 FFF7FEFF 		bl	HAL_NVIC_SetPriority
 246              	.LVL8:
  93:Core/Src/usart.c ****   /* USER CODE BEGIN USART1_MspInit 1 */
 247              		.loc 1 93 5 view .LVU72
 248 009c 2520     		movs	r0, #37
 249 009e FFF7FEFF 		bl	HAL_NVIC_EnableIRQ
 250              	.LVL9:
 251              		.loc 1 98 1 is_stmt 0 view .LVU73
 252 00a2 BCE7     		b	.L7
 253              	.L12:
 254              		.align	2
 255              	.L11:
 256 00a4 00040240 		.word	1073873920
 257 00a8 00000240 		.word	1073872896
 258              		.cfi_endproc
 259              	.LFE131:
 261              		.section	.text.HAL_UART_MspDeInit,"ax",%progbits
 262              		.align	1
ARM GAS  C:\Users\FIsh\AppData\Local\Temp\ccywQgVs.s 			page 8


 263              		.global	HAL_UART_MspDeInit
 264              		.syntax unified
 265              		.thumb
 266              		.thumb_func
 268              	HAL_UART_MspDeInit:
 269              	.LVL10:
 270              	.LFB132:
  99:Core/Src/usart.c **** 
 100:Core/Src/usart.c **** void HAL_UART_MspDeInit(UART_HandleTypeDef* uartHandle)
 101:Core/Src/usart.c **** {
 271              		.loc 1 101 1 is_stmt 1 view -0
 272              		.cfi_startproc
 273              		@ args = 0, pretend = 0, frame = 0
 274              		@ frame_needed = 0, uses_anonymous_args = 0
 275              		.loc 1 101 1 is_stmt 0 view .LVU75
 276 0000 08B5     		push	{r3, lr}
 277              	.LCFI5:
 278              		.cfi_def_cfa_offset 8
 279              		.cfi_offset 3, -8
 280              		.cfi_offset 14, -4
 102:Core/Src/usart.c **** 
 103:Core/Src/usart.c ****   if(uartHandle->Instance==USART1)
 281              		.loc 1 103 3 is_stmt 1 view .LVU76
 282              		.loc 1 103 16 is_stmt 0 view .LVU77
 283 0002 0268     		ldr	r2, [r0]
 284              		.loc 1 103 5 view .LVU78
 285 0004 0A4B     		ldr	r3, .L17
 286 0006 9A42     		cmp	r2, r3
 287 0008 00D0     		beq	.L16
 288              	.LVL11:
 289              	.L13:
 104:Core/Src/usart.c ****   {
 105:Core/Src/usart.c ****   /* USER CODE BEGIN USART1_MspDeInit 0 */
 106:Core/Src/usart.c **** 
 107:Core/Src/usart.c ****   /* USER CODE END USART1_MspDeInit 0 */
 108:Core/Src/usart.c ****     /* Peripheral clock disable */
 109:Core/Src/usart.c ****     __HAL_RCC_USART1_CLK_DISABLE();
 110:Core/Src/usart.c **** 
 111:Core/Src/usart.c ****     /**USART1 GPIO Configuration
 112:Core/Src/usart.c ****     PB7     ------> USART1_RX
 113:Core/Src/usart.c ****     PA9     ------> USART1_TX
 114:Core/Src/usart.c ****     */
 115:Core/Src/usart.c ****     HAL_GPIO_DeInit(GPIOB, GPIO_PIN_7);
 116:Core/Src/usart.c **** 
 117:Core/Src/usart.c ****     HAL_GPIO_DeInit(GPIOA, GPIO_PIN_9);
 118:Core/Src/usart.c **** 
 119:Core/Src/usart.c ****     /* USART1 interrupt Deinit */
 120:Core/Src/usart.c ****     HAL_NVIC_DisableIRQ(USART1_IRQn);
 121:Core/Src/usart.c ****   /* USER CODE BEGIN USART1_MspDeInit 1 */
 122:Core/Src/usart.c **** 
 123:Core/Src/usart.c ****   /* USER CODE END USART1_MspDeInit 1 */
 124:Core/Src/usart.c ****   }
 125:Core/Src/usart.c **** }
 290              		.loc 1 125 1 view .LVU79
 291 000a 08BD     		pop	{r3, pc}
 292              	.LVL12:
 293              	.L16:
ARM GAS  C:\Users\FIsh\AppData\Local\Temp\ccywQgVs.s 			page 9


 109:Core/Src/usart.c **** 
 294              		.loc 1 109 5 is_stmt 1 view .LVU80
 295 000c 094A     		ldr	r2, .L17+4
 296 000e 536C     		ldr	r3, [r2, #68]
 297 0010 23F01003 		bic	r3, r3, #16
 298 0014 5364     		str	r3, [r2, #68]
 115:Core/Src/usart.c **** 
 299              		.loc 1 115 5 view .LVU81
 300 0016 8021     		movs	r1, #128
 301 0018 0748     		ldr	r0, .L17+8
 302              	.LVL13:
 115:Core/Src/usart.c **** 
 303              		.loc 1 115 5 is_stmt 0 view .LVU82
 304 001a FFF7FEFF 		bl	HAL_GPIO_DeInit
 305              	.LVL14:
 117:Core/Src/usart.c **** 
 306              		.loc 1 117 5 is_stmt 1 view .LVU83
 307 001e 4FF40071 		mov	r1, #512
 308 0022 0648     		ldr	r0, .L17+12
 309 0024 FFF7FEFF 		bl	HAL_GPIO_DeInit
 310              	.LVL15:
 120:Core/Src/usart.c ****   /* USER CODE BEGIN USART1_MspDeInit 1 */
 311              		.loc 1 120 5 view .LVU84
 312 0028 2520     		movs	r0, #37
 313 002a FFF7FEFF 		bl	HAL_NVIC_DisableIRQ
 314              	.LVL16:
 315              		.loc 1 125 1 is_stmt 0 view .LVU85
 316 002e ECE7     		b	.L13
 317              	.L18:
 318              		.align	2
 319              	.L17:
 320 0030 00100140 		.word	1073811456
 321 0034 00380240 		.word	1073887232
 322 0038 00040240 		.word	1073873920
 323 003c 00000240 		.word	1073872896
 324              		.cfi_endproc
 325              	.LFE132:
 327              		.global	huart1
 328              		.section	.bss.huart1,"aw",%nobits
 329              		.align	2
 330              		.set	.LANCHOR0,. + 0
 333              	huart1:
 334 0000 00000000 		.space	68
 334      00000000 
 334      00000000 
 334      00000000 
 334      00000000 
 335              		.text
 336              	.Letext0:
 337              		.file 2 "c:\\program files (x86)\\gnu arm embedded toolchain\\10 2021.10\\arm-none-eabi\\include\\
 338              		.file 3 "c:\\program files (x86)\\gnu arm embedded toolchain\\10 2021.10\\arm-none-eabi\\include\\
 339              		.file 4 "Drivers/CMSIS/Device/ST/STM32F4xx/Include/stm32f407xx.h"
 340              		.file 5 "Drivers/STM32F4xx_HAL_Driver/Inc/stm32f4xx_hal_def.h"
 341              		.file 6 "Drivers/STM32F4xx_HAL_Driver/Inc/stm32f4xx_hal_gpio.h"
 342              		.file 7 "Drivers/STM32F4xx_HAL_Driver/Inc/stm32f4xx_hal_dma.h"
 343              		.file 8 "Drivers/STM32F4xx_HAL_Driver/Inc/stm32f4xx_hal_uart.h"
 344              		.file 9 "Drivers/STM32F4xx_HAL_Driver/Inc/stm32f4xx_hal_cortex.h"
ARM GAS  C:\Users\FIsh\AppData\Local\Temp\ccywQgVs.s 			page 10


 345              		.file 10 "Core/Inc/main.h"
 346              		.file 11 "Core/Inc/usart.h"
ARM GAS  C:\Users\FIsh\AppData\Local\Temp\ccywQgVs.s 			page 11

